target datalayout = "e-m:e-p270:32:32-p271:32:32-p272:64:64-i64:64-i128:128-f80:128-n8:16:32:64-S128"
target triple = "x86_64-pc-linux-gnu"

%struct.dt_pthread_mutex_t = type { %union.pthread_mutex_t }
%union.pthread_mutex_t = type { %struct.__pthread_mutex_s }
%struct.__pthread_mutex_s = type { i32, i32, i32, i32, i32, i16, i16, %struct.__pthread_internal_list }
%struct.__pthread_internal_list = type { ptr, ptr }
%struct.dt_mipmap_cache_t = type { [11 x i32], [11 x i32], [11 x i64], %struct.dt_mipmap_cache_one_t, %struct.dt_mipmap_cache_one_t, %struct.dt_mipmap_cache_one_t, [4096 x i8] }
%struct.dt_mipmap_cache_one_t = type { %struct.dt_cache_t, i64, i64, i64, i64, i64 }
%struct.dt_cache_t = type { %struct.dt_pthread_mutex_t, i64, i64, i64, ptr, ptr, ptr, ptr, ptr, ptr }

@.str.11 = private unnamed_addr constant [15 x i8] c"%s.d/%d/%u.jpg\00", align 1
@.str.31 = private unnamed_addr constant [19 x i8] c"cache_disk_backend\00", align 1

; Function Attrs: nounwind uwtable
define void @dt_mipmap_cache_copy_thumbnails(ptr noundef %0, i32 noundef %1, i32 noundef %2) #0 {
  %4 = alloca ptr, align 8
  %5 = alloca i32, align 4
  %6 = alloca i32, align 4
  %7 = alloca i32, align 4
  %8 = alloca [4096 x i8], align 16
  %9 = alloca [4096 x i8], align 16
  %10 = alloca ptr, align 8
  %11 = alloca ptr, align 8
  %12 = alloca ptr, align 8
  store ptr %0, ptr %4, align 8, !tbaa !50
  store i32 %1, ptr %5, align 4, !tbaa !43
  store i32 %2, ptr %6, align 4, !tbaa !43
  %13 = load ptr, ptr %4, align 8, !tbaa !50
  %14 = getelementptr inbounds nuw %struct.dt_mipmap_cache_t, ptr %13, i32 0, i32 6
  %15 = getelementptr inbounds [4096 x i8], ptr %14, i64 0, i64 0
  %16 = load i8, ptr %15, align 8, !tbaa !107
  %17 = sext i8 %16 to i32
  %18 = icmp ne i32 %17, 0
  br i1 %18, label %19, label %61

19:                                               ; preds = %3
  %20 = call i32 @dt_conf_get_bool(ptr noundef @.str.31)
  %21 = icmp ne i32 %20, 0
  br i1 %21, label %22, label %61

22:                                               ; preds = %19
  %23 = load i32, ptr %6, align 4, !tbaa !43
  %24 = icmp sgt i32 %23, 0
  br i1 %24, label %25, label %61

25:                                               ; preds = %22
  %26 = load i32, ptr %5, align 4, !tbaa !43
  %27 = icmp sgt i32 %26, 0
  br i1 %27, label %28, label %61

28:                                               ; preds = %25
  call void @llvm.lifetime.start.p0(i64 4, ptr %7) #12
  store i32 0, ptr %7, align 4, !tbaa !43
  br label %29

29:                                               ; preds = %57, %28
  %30 = load i32, ptr %7, align 4, !tbaa !43
  %31 = icmp ult i32 %30, 9
  br i1 %31, label %33, label %32

32:                                               ; preds = %29
  call void @llvm.lifetime.end.p0(i64 4, ptr %7) #12
  br label %60

33:                                               ; preds = %29
  call void @llvm.lifetime.start.p0(i64 4096, ptr %8) #12
  call void @llvm.memset.p0.i64(ptr align 16 %8, i8 0, i64 4096, i1 false)
  call void @llvm.lifetime.start.p0(i64 4096, ptr %9) #12
  call void @llvm.memset.p0.i64(ptr align 16 %9, i8 0, i64 4096, i1 false)
  %34 = getelementptr inbounds [4096 x i8], ptr %8, i64 0, i64 0
  %35 = load ptr, ptr %4, align 8, !tbaa !50
  %36 = getelementptr inbounds nuw %struct.dt_mipmap_cache_t, ptr %35, i32 0, i32 6
  %37 = getelementptr inbounds [4096 x i8], ptr %36, i64 0, i64 0
  %38 = load i32, ptr %7, align 4, !tbaa !43
  %39 = load i32, ptr %6, align 4, !tbaa !43
  %40 = call i32 (ptr, i64, ptr, ...) @snprintf(ptr noundef %34, i64 noundef 4096, ptr noundef @.str.11, ptr noundef %37, i32 noundef %38, i32 noundef %39) #12
  %41 = getelementptr inbounds [4096 x i8], ptr %9, i64 0, i64 0
  %42 = load ptr, ptr %4, align 8, !tbaa !50
  %43 = getelementptr inbounds nuw %struct.dt_mipmap_cache_t, ptr %42, i32 0, i32 6
  %44 = getelementptr inbounds [4096 x i8], ptr %43, i64 0, i64 0
  %45 = load i32, ptr %7, align 4, !tbaa !43
  %46 = load i32, ptr %5, align 4, !tbaa !43
  %47 = call i32 (ptr, i64, ptr, ...) @snprintf(ptr noundef %41, i64 noundef 4096, ptr noundef @.str.11, ptr noundef %44, i32 noundef %45, i32 noundef %46) #12
  call void @llvm.lifetime.start.p0(i64 8, ptr %10) #12
  %48 = getelementptr inbounds [4096 x i8], ptr %8, i64 0, i64 0
  %49 = call ptr @g_file_new_for_path(ptr noundef %48)
  store ptr %49, ptr %10, align 8, !tbaa !209
  call void @llvm.lifetime.start.p0(i64 8, ptr %11) #12
  %50 = getelementptr inbounds [4096 x i8], ptr %9, i64 0, i64 0
  %51 = call ptr @g_file_new_for_path(ptr noundef %50)
  store ptr %51, ptr %11, align 8, !tbaa !209
  call void @llvm.lifetime.start.p0(i64 8, ptr %12) #12
  store ptr null, ptr %12, align 8, !tbaa !211
  %52 = load ptr, ptr %10, align 8, !tbaa !209
  %53 = load ptr, ptr %11, align 8, !tbaa !209
  %54 = call i32 @g_file_copy(ptr noundef %52, ptr noundef %53, i32 noundef 0, ptr noundef null, ptr noundef null, ptr noundef null, ptr noundef %12)
  %55 = load ptr, ptr %11, align 8, !tbaa !209
  call void @g_object_unref(ptr noundef %55)
  %56 = load ptr, ptr %10, align 8, !tbaa !209
  call void @g_object_unref(ptr noundef %56)
  call void @g_clear_error(ptr noundef %12)
  call void @llvm.lifetime.end.p0(i64 8, ptr %12) #12
  call void @llvm.lifetime.end.p0(i64 8, ptr %11) #12
  call void @llvm.lifetime.end.p0(i64 8, ptr %10) #12
  call void @llvm.lifetime.end.p0(i64 4096, ptr %9) #12
  call void @llvm.lifetime.end.p0(i64 4096, ptr %8) #12
  br label %57

57:                                               ; preds = %33
  %58 = load i32, ptr %7, align 4, !tbaa !43
  %59 = add i32 %58, 1
  store i32 %59, ptr %7, align 4, !tbaa !43
  br label %29

60:                                               ; preds = %32
  br label %61

61:                                               ; preds = %60, %25, %22, %19, %3
  ret void
}