; Function Attrs: nounwind uwtable
define void @dt_mipmap_cache_copy_thumbnails(ptr noundef %0, i32 noundef %1, i32 noundef %2) local_unnamed_addr #3 {
  %4 = alloca [4096 x i8], align 16
  %5 = alloca [4096 x i8], align 16
  %6 = alloca ptr, align 8
  %7 = getelementptr inbounds nuw i8, ptr %0, i64 632
  %8 = load i8, ptr %7, align 8, !tbaa !74
  %.not = icmp eq i8 %8, 0
  br i1 %.not, label %.loopexit, label %9

9:                                                ; preds = %3
  %10 = tail call i32 @dt_conf_get_bool(ptr noundef nonnull @.str.31) #19
  %11 = icmp ne i32 %10, 0
  %12 = icmp sgt i32 %2, 0
  %or.cond = and i1 %12, %11
  %13 = icmp sgt i32 %1, 0
  %or.cond3 = and i1 %13, %or.cond
  br i1 %or.cond3, label %.preheader, label %.loopexit

.preheader:                                       ; preds = %9, %.preheader
  %.019 = phi i32 [ %19, %.preheader ], [ 0, %9 ]
  call void @llvm.lifetime.start.p0(i64 4096, ptr nonnull %4) #19
  call void @llvm.memset.p0.i64(ptr noundef nonnull align 16 dereferenceable(4096) %4, i8 0, i64 4096, i1 false)
  call void @llvm.lifetime.start.p0(i64 4096, ptr nonnull %5) #19
  call void @llvm.memset.p0.i64(ptr noundef nonnull align 16 dereferenceable(4096) %5, i8 0, i64 4096, i1 false)
  %14 = call i32 (ptr, i64, ptr, ...) @snprintf(ptr noundef nonnull dereferenceable(1) %4, i64 noundef 4096, ptr noundef nonnull @.str.11, ptr noundef nonnull %7, i32 noundef %.019, i32 noundef %2) #19
  %15 = call i32 (ptr, i64, ptr, ...) @snprintf(ptr noundef nonnull dereferenceable(1) %5, i64 noundef 4096, ptr noundef nonnull @.str.11, ptr noundef nonnull %7, i32 noundef %.019, i32 noundef %1) #19
  %16 = call ptr @g_file_new_for_path(ptr noundef nonnull %4) #19
  %17 = call ptr @g_file_new_for_path(ptr noundef nonnull %5) #19
  call void @llvm.lifetime.start.p0(i64 8, ptr nonnull %6) #19
  store ptr null, ptr %6, align 8, !tbaa !194
  %18 = call i32 @g_file_copy(ptr noundef %16, ptr noundef %17, i32 noundef 0, ptr noundef null, ptr noundef null, ptr noundef null, ptr noundef nonnull %6) #19
  call void @g_object_unref(ptr noundef %17) #19
  call void @g_object_unref(ptr noundef %16) #19
  call void @g_clear_error(ptr noundef nonnull %6) #19
  call void @llvm.lifetime.end.p0(i64 8, ptr nonnull %6) #19
  call void @llvm.lifetime.end.p0(i64 4096, ptr nonnull %5) #19
  call void @llvm.lifetime.end.p0(i64 4096, ptr nonnull %4) #19
  %19 = add nuw nsw i32 %.019, 1
  %exitcond.not = icmp eq i32 %19, 9
  br i1 %exitcond.not, label %.loopexit, label %.preheader

.loopexit:                                        ; preds = %.preheader, %9, %3
  ret void
}